target datalayout = "e-m:e-p270:32:32-p271:32:32-p272:64:64-i64:64-i128:128-f80:128-n8:16:32:64-S128"
target triple = "x86_64-pc-linux-gnu"

%struct.QMetaObject = type { %struct.anon }
%struct.anon = type { %"struct.QMetaObject::SuperData", ptr, ptr, ptr, ptr, ptr }
%"struct.QMetaObject::SuperData" = type { ptr }
%class.QString = type { ptr }

@_ZN21SelectionFilterPlugin16staticMetaObjectE = external global %struct.QMetaObject, align 8
@.str.68 = private unnamed_addr constant [51 x i8] c"Dilate (expand) the current set of selected faces.\00", align 1
@.str.69 = private unnamed_addr constant [50 x i8] c"Erode (reduce) the current set of selected faces.\00", align 1
@.str.70 = private unnamed_addr constant [51 x i8] c"Invert the current set of selected faces/vertices.\00", align 1
@.str.71 = private unnamed_addr constant [137 x i8] c"Expand the current face selection so that it includes all the faces in the connected components where there is at least a selected face.\00", align 1
@.str.72 = private unnamed_addr constant [50 x i8] c"Clear the current set of selected faces/vertices.\00", align 1
@.str.73 = private unnamed_addr constant [51 x i8] c"Select all the faces/vertices of the current mesh.\00", align 1
@.str.74 = private unnamed_addr constant [107 x i8] c"Delete the current set of selected vertices; faces that share one of the deleted vertices are deleted too.\00", align 1
@.str.75 = private unnamed_addr constant [97 x i8] c"Delete ALL faces, turning the mesh into a pointcloud. May be applied also to all visible layers.\00", align 1
@.str.76 = private unnamed_addr constant [94 x i8] c"Delete the current set of selected faces, vertices that remains unreferenced are not deleted.\00", align 1
@.str.77 = private unnamed_addr constant [88 x i8] c"Delete the current set of selected faces and all the vertices surrounded by that faces.\00", align 1
@.str.78 = private unnamed_addr constant [176 x i8] c"Select faces according to the angle between their normal and the view direction. It is used in range map processing to select and delete steep faces parallel to viewdirection.\00", align 1
@.str.79 = private unnamed_addr constant [111 x i8] c"Select faces with 'problems', like normal inverted w.r.t the surrounding areas, extremely elongated or folded.\00", align 1
@.str.80 = private unnamed_addr constant [37 x i8] c"Select only self intersecting faces.\00", align 1
@.str.81 = private unnamed_addr constant [37 x i8] c"Select faces from selected vertices.\00", align 1
@.str.82 = private unnamed_addr constant [37 x i8] c"Select vertices from selected faces.\00", align 1
@.str.83 = private unnamed_addr constant [89 x i8] c"Select all triangles having an edge with length greater or equal than a given threshold.\00", align 1
@.str.84 = private unnamed_addr constant [43 x i8] c"Select vertices and faces on the boundary.\00", align 1
@.str.85 = private unnamed_addr constant [73 x i8] c"Select all the faces/vertices within the specified vertex quality range.\00", align 1
@.str.86 = private unnamed_addr constant [76 x i8] c"Select all the faces/vertices with within the specified face quality range.\00", align 1
@.str.87 = private unnamed_addr constant [44 x i8] c"Select part of the mesh based on its color.\00", align 1
@.str.88 = private unnamed_addr constant [28 x i8] c"Colorize only border edges.\00", align 1
@.str.90 = private unnamed_addr constant [175 x i8] c"Select the non manifold vertices that do not belong to non manifold edges. For example two cones connected by their apex. Vertices incident on non manifold edges are ignored.\00", align 1
@.str.91 = private unnamed_addr constant [168 x i8] c"Select the vertex classified as outlier using Local Outlier Propabilty measure described in:<br> <b>'LoOP: Local Outlier Probabilities'</b> Kriegel et al.<br>CIKM 2009\00", align 1
@.str.92 = private unnamed_addr constant [15 x i8] c"Unknown filter\00", align 1

; Function Attrs: mustprogress uwtable
define linkonce_odr void @_ZN7QStringC2EPKc(ptr noundef nonnull align 8 dereferenceable(8) %0, ptr noundef %1) unnamed_addr #5 comdat align 2 {
  %3 = alloca ptr, align 8
  %4 = alloca ptr, align 8
  store ptr %0, ptr %3, align 8
  store ptr %1, ptr %4, align 8
  %5 = load ptr, ptr %3, align 8
  %6 = getelementptr inbounds %class.QString, ptr %5, i32 0, i32 0
  %7 = load ptr, ptr %4, align 8
  %8 = load ptr, ptr %4, align 8
  %9 = icmp ne ptr %8, null
  br i1 %9, label %10, label %14

10:                                               ; preds = %2
  %11 = load ptr, ptr %4, align 8
  %12 = call i64 @strlen(ptr noundef %11) #28
  %13 = trunc i64 %12 to i32
  br label %15

14:                                               ; preds = %2
  br label %15

15:                                               ; preds = %14, %10
  %16 = phi i32 [ %13, %10 ], [ -1, %14 ]
  %17 = call noundef ptr @_ZN7QString16fromAscii_helperEPKci(ptr noundef %7, i32 noundef %16)
  store ptr %17, ptr %6, align 8
  ret void
}

; Function Attrs: mustprogress uwtable
define linkonce_odr void @_ZN21SelectionFilterPlugin2trEPKcS1_i(ptr dead_on_unwind noalias writable sret(%class.QString) align 8 %0, ptr noundef %1, ptr noundef %2, i32 noundef %3) #5 comdat align 2 {
  %5 = alloca ptr, align 8
  %6 = alloca ptr, align 8
  %7 = alloca ptr, align 8
  %8 = alloca i32, align 4
  store ptr %0, ptr %5, align 8
  store ptr %1, ptr %6, align 8
  store ptr %2, ptr %7, align 8
  store i32 %3, ptr %8, align 4
  %9 = load ptr, ptr %6, align 8
  %10 = load ptr, ptr %7, align 8
  %11 = load i32, ptr %8, align 4
  call void @_ZNK11QMetaObject2trEPKcS1_i(ptr dead_on_unwind writable sret(%class.QString) align 8 %0, ptr noundef nonnull align 8 dereferenceable(48) @_ZN21SelectionFilterPlugin16staticMetaObjectE, ptr noundef %9, ptr noundef %10, i32 noundef %11)
  ret void
}

; Function Attrs: mustprogress uwtable
define void @_ZNK21SelectionFilterPlugin10filterInfoEi(ptr dead_on_unwind noalias writable sret(%class.QString) align 8 %0, ptr noundef nonnull align 8 dereferenceable(80) %1, i32 noundef %2) unnamed_addr #5 align 2 {
  %4 = alloca ptr, align 8
  %5 = alloca ptr, align 8
  %6 = alloca i32, align 4
  store ptr %0, ptr %4, align 8
  store ptr %1, ptr %5, align 8
  store i32 %2, ptr %6, align 4
  %7 = load i32, ptr %6, align 4
  switch i32 %7, label %32 [
    i32 13, label %8
    i32 12, label %9
    i32 4, label %10
    i32 5, label %11
    i32 1, label %12
    i32 0, label %13
    i32 8, label %14
    i32 9, label %15
    i32 10, label %16
    i32 11, label %17
    i32 2, label %18
    i32 3, label %19
    i32 19, label %20
    i32 6, label %21
    i32 7, label %22
    i32 23, label %23
    i32 14, label %24
    i32 16, label %25
    i32 15, label %26
    i32 18, label %27
    i32 20, label %28
    i32 21, label %29
    i32 22, label %30
    i32 24, label %31
  ]

8:                                                ; preds = %3
  call void @_ZN21SelectionFilterPlugin2trEPKcS1_i(ptr dead_on_unwind writable sret(%class.QString) align 8 %0, ptr noundef @.str.68, ptr noundef null, i32 noundef -1)
  br label %33

9:                                                ; preds = %3
  call void @_ZN21SelectionFilterPlugin2trEPKcS1_i(ptr dead_on_unwind writable sret(%class.QString) align 8 %0, ptr noundef @.str.69, ptr noundef null, i32 noundef -1)
  br label %33

10:                                               ; preds = %3
  call void @_ZN21SelectionFilterPlugin2trEPKcS1_i(ptr dead_on_unwind writable sret(%class.QString) align 8 %0, ptr noundef @.str.70, ptr noundef null, i32 noundef -1)
  br label %33

11:                                               ; preds = %3
  call void @_ZN21SelectionFilterPlugin2trEPKcS1_i(ptr dead_on_unwind writable sret(%class.QString) align 8 %0, ptr noundef @.str.71, ptr noundef null, i32 noundef -1)
  br label %33

12:                                               ; preds = %3
  call void @_ZN21SelectionFilterPlugin2trEPKcS1_i(ptr dead_on_unwind writable sret(%class.QString) align 8 %0, ptr noundef @.str.72, ptr noundef null, i32 noundef -1)
  br label %33

13:                                               ; preds = %3
  call void @_ZN21SelectionFilterPlugin2trEPKcS1_i(ptr dead_on_unwind writable sret(%class.QString) align 8 %0, ptr noundef @.str.73, ptr noundef null, i32 noundef -1)
  br label %33

14:                                               ; preds = %3
  call void @_ZN21SelectionFilterPlugin2trEPKcS1_i(ptr dead_on_unwind writable sret(%class.QString) align 8 %0, ptr noundef @.str.74, ptr noundef null, i32 noundef -1)
  br label %33

15:                                               ; preds = %3
  call void @_ZN21SelectionFilterPlugin2trEPKcS1_i(ptr dead_on_unwind writable sret(%class.QString) align 8 %0, ptr noundef @.str.75, ptr noundef null, i32 noundef -1)
  br label %33

16:                                               ; preds = %3
  call void @_ZN21SelectionFilterPlugin2trEPKcS1_i(ptr dead_on_unwind writable sret(%class.QString) align 8 %0, ptr noundef @.str.76, ptr noundef null, i32 noundef -1)
  br label %33

17:                                               ; preds = %3
  call void @_ZN21SelectionFilterPlugin2trEPKcS1_i(ptr dead_on_unwind writable sret(%class.QString) align 8 %0, ptr noundef @.str.77, ptr noundef null, i32 noundef -1)
  br label %33

18:                                               ; preds = %3
  call void @_ZN21SelectionFilterPlugin2trEPKcS1_i(ptr dead_on_unwind writable sret(%class.QString) align 8 %0, ptr noundef @.str.78, ptr noundef null, i32 noundef -1)
  br label %33

19:                                               ; preds = %3
  call void @_ZN21SelectionFilterPlugin2trEPKcS1_i(ptr dead_on_unwind writable sret(%class.QString) align 8 %0, ptr noundef @.str.79, ptr noundef null, i32 noundef -1)
  br label %33

20:                                               ; preds = %3
  call void @_ZN21SelectionFilterPlugin2trEPKcS1_i(ptr dead_on_unwind writable sret(%class.QString) align 8 %0, ptr noundef @.str.80, ptr noundef null, i32 noundef -1)
  br label %33

21:                                               ; preds = %3
  call void @_ZN21SelectionFilterPlugin2trEPKcS1_i(ptr dead_on_unwind writable sret(%class.QString) align 8 %0, ptr noundef @.str.81, ptr noundef null, i32 noundef -1)
  br label %33

22:                                               ; preds = %3
  call void @_ZN21SelectionFilterPlugin2trEPKcS1_i(ptr dead_on_unwind writable sret(%class.QString) align 8 %0, ptr noundef @.str.82, ptr noundef null, i32 noundef -1)
  br label %33

23:                                               ; preds = %3
  call void @_ZN21SelectionFilterPlugin2trEPKcS1_i(ptr dead_on_unwind writable sret(%class.QString) align 8 %0, ptr noundef @.str.83, ptr noundef null, i32 noundef -1)
  br label %33

24:                                               ; preds = %3
  call void @_ZN21SelectionFilterPlugin2trEPKcS1_i(ptr dead_on_unwind writable sret(%class.QString) align 8 %0, ptr noundef @.str.84, ptr noundef null, i32 noundef -1)
  br label %33

25:                                               ; preds = %3
  call void @_ZN21SelectionFilterPlugin2trEPKcS1_i(ptr dead_on_unwind writable sret(%class.QString) align 8 %0, ptr noundef @.str.85, ptr noundef null, i32 noundef -1)
  br label %33

26:                                               ; preds = %3
  call void @_ZN21SelectionFilterPlugin2trEPKcS1_i(ptr dead_on_unwind writable sret(%class.QString) align 8 %0, ptr noundef @.str.86, ptr noundef null, i32 noundef -1)
  br label %33

27:                                               ; preds = %3
  call void @_ZN21SelectionFilterPlugin2trEPKcS1_i(ptr dead_on_unwind writable sret(%class.QString) align 8 %0, ptr noundef @.str.87, ptr noundef null, i32 noundef -1)
  br label %33

28:                                               ; preds = %3
  call void @_ZN21SelectionFilterPlugin2trEPKcS1_i(ptr dead_on_unwind writable sret(%class.QString) align 8 %0, ptr noundef @.str.88, ptr noundef null, i32 noundef -1)
  br label %33

29:                                               ; preds = %3
  call void @_ZN21SelectionFilterPlugin2trEPKcS1_i(ptr dead_on_unwind writable sret(%class.QString) align 8 %0, ptr noundef @.str.89, ptr noundef null, i32 noundef -1)
  br label %33

30:                                               ; preds = %3
  call void @_ZN21SelectionFilterPlugin2trEPKcS1_i(ptr dead_on_unwind writable sret(%class.QString) align 8 %0, ptr noundef @.str.90, ptr noundef null, i32 noundef -1)
  br label %33

31:                                               ; preds = %3
  call void @_ZN21SelectionFilterPlugin2trEPKcS1_i(ptr dead_on_unwind writable sret(%class.QString) align 8 %0, ptr noundef @.str.91, ptr noundef null, i32 noundef -1)
  br label %33

32:                                               ; preds = %3
  call void @_ZN7QStringC2EPKc(ptr noundef nonnull align 8 dereferenceable(8) %0, ptr noundef @.str.92)
  br label %33

33:                                               ; preds = %32, %31, %30, %29, %28, %27, %26, %25, %24, %23, %22, %21, %20, %19, %18, %17, %16, %15, %14, %13, %12, %11, %10, %9, %8
  ret void
}