; Function Attrs: mustprogress uwtable
define void @_ZNK21SelectionFilterPlugin10filterInfoEi(ptr dead_on_unwind noalias writable sret(%class.QString) align 8 %0, ptr nocapture nonnull readnone align 8 %1, i32 noundef %2) unnamed_addr #9 align 2 {
  switch i32 %2, label %28 [
    i32 13, label %4
    i32 12, label %5
    i32 4, label %6
    i32 5, label %7
    i32 1, label %8
    i32 0, label %9
    i32 8, label %10
    i32 9, label %11
    i32 10, label %12
    i32 11, label %13
    i32 2, label %14
    i32 3, label %15
    i32 19, label %16
    i32 6, label %17
    i32 7, label %18
    i32 23, label %19
    i32 14, label %20
    i32 16, label %21
    i32 15, label %22
    i32 18, label %23
    i32 20, label %24
    i32 21, label %25
    i32 22, label %26
    i32 24, label %27
  ]

4:                                                ; preds = %3
  tail call void @_ZNK11QMetaObject2trEPKcS1_i(ptr dead_on_unwind writable sret(%class.QString) align 8 %0, ptr noundef nonnull align 8 dereferenceable(48) @_ZN21SelectionFilterPlugin16staticMetaObjectE, ptr noundef nonnull @.str.68, ptr noundef null, i32 noundef -1)
  br label %30

5:                                                ; preds = %3
  tail call void @_ZNK11QMetaObject2trEPKcS1_i(ptr dead_on_unwind writable sret(%class.QString) align 8 %0, ptr noundef nonnull align 8 dereferenceable(48) @_ZN21SelectionFilterPlugin16staticMetaObjectE, ptr noundef nonnull @.str.69, ptr noundef null, i32 noundef -1)
  br label %30

6:                                                ; preds = %3
  tail call void @_ZNK11QMetaObject2trEPKcS1_i(ptr dead_on_unwind writable sret(%class.QString) align 8 %0, ptr noundef nonnull align 8 dereferenceable(48) @_ZN21SelectionFilterPlugin16staticMetaObjectE, ptr noundef nonnull @.str.70, ptr noundef null, i32 noundef -1)
  br label %30

7:                                                ; preds = %3
  tail call void @_ZNK11QMetaObject2trEPKcS1_i(ptr dead_on_unwind writable sret(%class.QString) align 8 %0, ptr noundef nonnull align 8 dereferenceable(48) @_ZN21SelectionFilterPlugin16staticMetaObjectE, ptr noundef nonnull @.str.71, ptr noundef null, i32 noundef -1)
  br label %30

8:                                                ; preds = %3
  tail call void @_ZNK11QMetaObject2trEPKcS1_i(ptr dead_on_unwind writable sret(%class.QString) align 8 %0, ptr noundef nonnull align 8 dereferenceable(48) @_ZN21SelectionFilterPlugin16staticMetaObjectE, ptr noundef nonnull @.str.72, ptr noundef null, i32 noundef -1)
  br label %30

9:                                                ; preds = %3
  tail call void @_ZNK11QMetaObject2trEPKcS1_i(ptr dead_on_unwind writable sret(%class.QString) align 8 %0, ptr noundef nonnull align 8 dereferenceable(48) @_ZN21SelectionFilterPlugin16staticMetaObjectE, ptr noundef nonnull @.str.73, ptr noundef null, i32 noundef -1)
  br label %30

10:                                               ; preds = %3
  tail call void @_ZNK11QMetaObject2trEPKcS1_i(ptr dead_on_unwind writable sret(%class.QString) align 8 %0, ptr noundef nonnull align 8 dereferenceable(48) @_ZN21SelectionFilterPlugin16staticMetaObjectE, ptr noundef nonnull @.str.74, ptr noundef null, i32 noundef -1)
  br label %30

11:                                               ; preds = %3
  tail call void @_ZNK11QMetaObject2trEPKcS1_i(ptr dead_on_unwind writable sret(%class.QString) align 8 %0, ptr noundef nonnull align 8 dereferenceable(48) @_ZN21SelectionFilterPlugin16staticMetaObjectE, ptr noundef nonnull @.str.75, ptr noundef null, i32 noundef -1)
  br label %30

12:                                               ; preds = %3
  tail call void @_ZNK11QMetaObject2trEPKcS1_i(ptr dead_on_unwind writable sret(%class.QString) align 8 %0, ptr noundef nonnull align 8 dereferenceable(48) @_ZN21SelectionFilterPlugin16staticMetaObjectE, ptr noundef nonnull @.str.76, ptr noundef null, i32 noundef -1)
  br label %30

13:                                               ; preds = %3
  tail call void @_ZNK11QMetaObject2trEPKcS1_i(ptr dead_on_unwind writable sret(%class.QString) align 8 %0, ptr noundef nonnull align 8 dereferenceable(48) @_ZN21SelectionFilterPlugin16staticMetaObjectE, ptr noundef nonnull @.str.77, ptr noundef null, i32 noundef -1)
  br label %30

14:                                               ; preds = %3
  tail call void @_ZNK11QMetaObject2trEPKcS1_i(ptr dead_on_unwind writable sret(%class.QString) align 8 %0, ptr noundef nonnull align 8 dereferenceable(48) @_ZN21SelectionFilterPlugin16staticMetaObjectE, ptr noundef nonnull @.str.78, ptr noundef null, i32 noundef -1)
  br label %30

15:                                               ; preds = %3
  tail call void @_ZNK11QMetaObject2trEPKcS1_i(ptr dead_on_unwind writable sret(%class.QString) align 8 %0, ptr noundef nonnull align 8 dereferenceable(48) @_ZN21SelectionFilterPlugin16staticMetaObjectE, ptr noundef nonnull @.str.79, ptr noundef null, i32 noundef -1)
  br label %30

16:                                               ; preds = %3
  tail call void @_ZNK11QMetaObject2trEPKcS1_i(ptr dead_on_unwind writable sret(%class.QString) align 8 %0, ptr noundef nonnull align 8 dereferenceable(48) @_ZN21SelectionFilterPlugin16staticMetaObjectE, ptr noundef nonnull @.str.80, ptr noundef null, i32 noundef -1)
  br label %30

17:                                               ; preds = %3
  tail call void @_ZNK11QMetaObject2trEPKcS1_i(ptr dead_on_unwind writable sret(%class.QString) align 8 %0, ptr noundef nonnull align 8 dereferenceable(48) @_ZN21SelectionFilterPlugin16staticMetaObjectE, ptr noundef nonnull @.str.81, ptr noundef null, i32 noundef -1)
  br label %30

18:                                               ; preds = %3
  tail call void @_ZNK11QMetaObject2trEPKcS1_i(ptr dead_on_unwind writable sret(%class.QString) align 8 %0, ptr noundef nonnull align 8 dereferenceable(48) @_ZN21SelectionFilterPlugin16staticMetaObjectE, ptr noundef nonnull @.str.82, ptr noundef null, i32 noundef -1)
  br label %30

19:                                               ; preds = %3
  tail call void @_ZNK11QMetaObject2trEPKcS1_i(ptr dead_on_unwind writable sret(%class.QString) align 8 %0, ptr noundef nonnull align 8 dereferenceable(48) @_ZN21SelectionFilterPlugin16staticMetaObjectE, ptr noundef nonnull @.str.83, ptr noundef null, i32 noundef -1)
  br label %30

20:                                               ; preds = %3
  tail call void @_ZNK11QMetaObject2trEPKcS1_i(ptr dead_on_unwind writable sret(%class.QString) align 8 %0, ptr noundef nonnull align 8 dereferenceable(48) @_ZN21SelectionFilterPlugin16staticMetaObjectE, ptr noundef nonnull @.str.84, ptr noundef null, i32 noundef -1)
  br label %30

21:                                               ; preds = %3
  tail call void @_ZNK11QMetaObject2trEPKcS1_i(ptr dead_on_unwind writable sret(%class.QString) align 8 %0, ptr noundef nonnull align 8 dereferenceable(48) @_ZN21SelectionFilterPlugin16staticMetaObjectE, ptr noundef nonnull @.str.85, ptr noundef null, i32 noundef -1)
  br label %30

22:                                               ; preds = %3
  tail call void @_ZNK11QMetaObject2trEPKcS1_i(ptr dead_on_unwind writable sret(%class.QString) align 8 %0, ptr noundef nonnull align 8 dereferenceable(48) @_ZN21SelectionFilterPlugin16staticMetaObjectE, ptr noundef nonnull @.str.86, ptr noundef null, i32 noundef -1)
  br label %30

23:                                               ; preds = %3
  tail call void @_ZNK11QMetaObject2trEPKcS1_i(ptr dead_on_unwind writable sret(%class.QString) align 8 %0, ptr noundef nonnull align 8 dereferenceable(48) @_ZN21SelectionFilterPlugin16staticMetaObjectE, ptr noundef nonnull @.str.87, ptr noundef null, i32 noundef -1)
  br label %30

24:                                               ; preds = %3
  tail call void @_ZNK11QMetaObject2trEPKcS1_i(ptr dead_on_unwind writable sret(%class.QString) align 8 %0, ptr noundef nonnull align 8 dereferenceable(48) @_ZN21SelectionFilterPlugin16staticMetaObjectE, ptr noundef nonnull @.str.88, ptr noundef null, i32 noundef -1)
  br label %30

25:                                               ; preds = %3
  tail call void @_ZNK11QMetaObject2trEPKcS1_i(ptr dead_on_unwind writable sret(%class.QString) align 8 %0, ptr noundef nonnull align 8 dereferenceable(48) @_ZN21SelectionFilterPlugin16staticMetaObjectE, ptr noundef nonnull @.str.89, ptr noundef null, i32 noundef -1)
  br label %30

26:                                               ; preds = %3
  tail call void @_ZNK11QMetaObject2trEPKcS1_i(ptr dead_on_unwind writable sret(%class.QString) align 8 %0, ptr noundef nonnull align 8 dereferenceable(48) @_ZN21SelectionFilterPlugin16staticMetaObjectE, ptr noundef nonnull @.str.90, ptr noundef null, i32 noundef -1)
  br label %30

27:                                               ; preds = %3
  tail call void @_ZNK11QMetaObject2trEPKcS1_i(ptr dead_on_unwind writable sret(%class.QString) align 8 %0, ptr noundef nonnull align 8 dereferenceable(48) @_ZN21SelectionFilterPlugin16staticMetaObjectE, ptr noundef nonnull @.str.91, ptr noundef null, i32 noundef -1)
  br label %30

28:                                               ; preds = %3
  %29 = tail call noundef ptr @_ZN7QString16fromAscii_helperEPKci(ptr noundef nonnull @.str.92, i32 noundef 14)
  store ptr %29, ptr %0, align 8
  br label %30

30:                                               ; preds = %28, %27, %26, %25, %24, %23, %22, %21, %20, %19, %18, %17, %16, %15, %14, %13, %12, %11, %10, %9, %8, %7, %6, %5, %4
  ret void
}